target datalayout = "e-m:e-p270:32:32-p271:32:32-p272:64:64-i64:64-i128:128-f80:128-n8:16:32:64-S128"
target triple = "x86_64-unknown-linux-gnu"

%"class.proxygen::HeaderTable" = type { ptr, i32, i32, %"class.std::vector", i32, i32, i32, i8, %"class.folly::F14FastMap" }
%"class.std::vector" = type { %"struct.std::_Vector_base" }
%"struct.std::_Vector_base" = type { %"struct.std::_Vector_base<proxygen::HPACKHeader, std::allocator<proxygen::HPACKHeader>>::_Vector_impl" }
%"struct.std::_Vector_base<proxygen::HPACKHeader, std::allocator<proxygen::HPACKHeader>>::_Vector_impl" = type { %"struct.std::_Vector_base<proxygen::HPACKHeader, std::allocator<proxygen::HPACKHeader>>::_Vector_impl_data" }
%"struct.std::_Vector_base<proxygen::HPACKHeader, std::allocator<proxygen::HPACKHeader>>::_Vector_impl_data" = type { ptr, ptr, ptr }
%"class.folly::F14FastMap" = type { %"class.folly::f14::detail::F14VectorMapImpl" }
%"class.folly::f14::detail::F14VectorMapImpl" = type { %"class.folly::f14::detail::F14BasicMap" }
%"class.folly::f14::detail::F14BasicMap" = type { %"class.folly::f14::detail::F14Table" }
%"class.folly::f14::detail::F14Table" = type { %"class.folly::f14::detail::VectorContainerPolicy", ptr, %"struct.folly::f14::detail::SizeAndChunkShiftAndPackedBegin" }
%"class.folly::f14::detail::VectorContainerPolicy" = type { ptr }
%"struct.folly::f14::detail::SizeAndChunkShiftAndPackedBegin" = type { %"struct.folly::f14::detail::PackedSizeAndChunkShift" }
%"struct.folly::f14::detail::PackedSizeAndChunkShift" = type { i64 }

; Function Attrs: mustprogress uwtable
define noundef i32 @_ZN8proxygen16QPACKHeaderTable5evictEjj(ptr noundef nonnull align 8 dereferenceable(104) %this, i32 noundef %needed, i32 noundef %desiredCapacity) unnamed_addr #4 align 2 {
entry:
  %retval = alloca i32, align 4
  %this.addr = alloca ptr, align 8
  %needed.addr = alloca i32, align 4
  %desiredCapacity.addr = alloca i32, align 4
  store ptr %this, ptr %this.addr, align 8
  store i32 %needed, ptr %needed.addr, align 4
  store i32 %desiredCapacity, ptr %desiredCapacity.addr, align 4
  %this1 = load ptr, ptr %this.addr, align 8
  %bytes_ = getelementptr inbounds %"class.proxygen::HeaderTable", ptr %this1, i32 0, i32 2
  %0 = load i32, ptr %bytes_, align 4
  %1 = load i32, ptr %needed.addr, align 4
  %add = add i32 %0, %1
  %2 = load i32, ptr %desiredCapacity.addr, align 4
  %cmp = icmp ult i32 %add, %2
  br i1 %cmp, label %if.then, label %lor.lhs.false

lor.lhs.false:                                    ; preds = %entry
  %bytes_2 = getelementptr inbounds %"class.proxygen::HeaderTable", ptr %this1, i32 0, i32 2
  %3 = load i32, ptr %bytes_2, align 4
  %4 = load i32, ptr %needed.addr, align 4
  %add3 = add i32 %3, %4
  %5 = load i32, ptr %desiredCapacity.addr, align 4
  %sub = sub i32 %add3, %5
  %call = call noundef zeroext i1 @_ZN8proxygen16QPACKHeaderTable8canEvictEj(ptr noundef nonnull align 8 dereferenceable(104) %this1, i32 noundef %sub)
  br i1 %call, label %if.end, label %if.then

if.then:                                          ; preds = %lor.lhs.false, %entry
  store i32 0, ptr %retval, align 4
  br label %return

if.end:                                           ; preds = %lor.lhs.false
  %6 = load i32, ptr %needed.addr, align 4
  %7 = load i32, ptr %desiredCapacity.addr, align 4
  %call4 = call noundef i32 @_ZN8proxygen11HeaderTable5evictEjj(ptr noundef nonnull align 8 dereferenceable(80) %this1, i32 noundef %6, i32 noundef %7)
  store i32 %call4, ptr %retval, align 4
  br label %return

return:                                           ; preds = %if.end, %if.then
  %8 = load i32, ptr %retval, align 4
  ret i32 %8
}