; Function Attrs: mustprogress uwtable
define noundef i32 @_ZN8proxygen16QPACKHeaderTable5evictEjj(ptr noundef nonnull align 8 dereferenceable(104) %this, i32 noundef %needed, i32 noundef %desiredCapacity) unnamed_addr #3 align 2 {
entry:
  %bytes_ = getelementptr inbounds i8, ptr %this, i64 12
  %0 = load i32, ptr %bytes_, align 4
  %add = add i32 %0, %needed
  %cmp = icmp ult i32 %add, %desiredCapacity
  br i1 %cmp, label %return, label %lor.lhs.false

lor.lhs.false:                                    ; preds = %entry
  %sub = sub i32 %add, %desiredCapacity
  %call = tail call noundef zeroext i1 @_ZN8proxygen16QPACKHeaderTable8canEvictEj(ptr noundef nonnull align 8 dereferenceable(104) %this, i32 noundef %sub)
  br i1 %call, label %if.end, label %return

if.end:                                           ; preds = %lor.lhs.false
  %call4 = tail call noundef i32 @_ZN8proxygen11HeaderTable5evictEjj(ptr noundef nonnull align 8 dereferenceable(80) %this, i32 noundef %needed, i32 noundef %desiredCapacity)
  br label %return

return:                                           ; preds = %entry, %lor.lhs.false, %if.end
  %retval.0 = phi i32 [ %call4, %if.end ], [ 0, %lor.lhs.false ], [ 0, %entry ]
  ret i32 %retval.0
}